; Function Attrs: nofree nounwind uwtable
define noalias noundef ptr @Gia_ManRelInitObjs() local_unnamed_addr #3 {
Vec_IntPush.exit:
  %0 = tail call noalias dereferenceable_or_null(16) ptr @malloc(i64 noundef 16) #31
  %1 = getelementptr inbounds nuw i8, ptr %0, i64 4
  store i32 16, ptr %0, align 8, !tbaa !80
  %2 = tail call noalias dereferenceable_or_null(64) ptr @malloc(i64 noundef 64) #31
  %3 = getelementptr inbounds nuw i8, ptr %0, i64 8
  store ptr %2, ptr %3, align 8, !tbaa !29
  store i32 52, ptr %2, align 4, !tbaa !30
  store i32 2, ptr %1, align 4, !tbaa !28
  %4 = getelementptr inbounds nuw i8, ptr %2, i64 4
  store i32 54, ptr %4, align 4, !tbaa !30
  %5 = tail call i32 (ptr, ...) @printf(ptr noundef nonnull dereferenceable(1) @.str.117, i32 noundef 2)
  %6 = load i32, ptr %2, align 4, !tbaa !30
  %7 = tail call i32 (ptr, ...) @printf(ptr noundef nonnull dereferenceable(1) @.str.96, i32 noundef %6)
  %8 = getelementptr inbounds nuw i8, ptr %2, i64 4
  %9 = load i32, ptr %8, align 4, !tbaa !30
  %10 = tail call i32 (ptr, ...) @printf(ptr noundef nonnull dereferenceable(1) @.str.96, i32 noundef %9)
  %puts.i = tail call i32 @puts(ptr nonnull dereferenceable(1) @str.10)
  ret ptr %0
}